; Function Attrs: mustprogress nounwind uwtable
define internal void @_ZN9grpc_core12_GLOBAL__N_122WeightedTargetLbConfigD0Ev(ptr noundef nonnull align 8 dereferenceable(64) %this) unnamed_addr #11 align 2 personality ptr @__gxx_personality_v0 {
entry:
  store ptr getelementptr inbounds ({ [5 x ptr] }, ptr @_ZTVN9grpc_core12_GLOBAL__N_122WeightedTargetLbConfigE, i64 0, i32 0, i64 2), ptr %this, align 8
  %0 = getelementptr inbounds i8, ptr %this, i64 32
  %this.val.i.i.i = load ptr, ptr %0, align 8
  invoke fastcc void @_ZNSt8_Rb_treeINSt7__cxx1112basic_stringIcSt11char_traitsIcESaIcEEESt4pairIKS5_N9grpc_core12_GLOBAL__N_122WeightedTargetLbConfig11ChildConfigEESt10_Select1stISC_ESt4lessIS5_ESaISC_EE8_M_eraseEPSt13_Rb_tree_nodeISC_E(ptr noundef %this.val.i.i.i)
          to label %_ZN9grpc_core12_GLOBAL__N_122WeightedTargetLbConfigD2Ev.exit unwind label %terminate.lpad.i.i.i

terminate.lpad.i.i.i:                             ; preds = %entry
  %1 = landingpad { ptr, i32 }
          catch ptr null
  %2 = extractvalue { ptr, i32 } %1, 0
  tail call void @__clang_call_terminate(ptr %2) #27
  unreachable

_ZN9grpc_core12_GLOBAL__N_122WeightedTargetLbConfigD2Ev.exit: ; preds = %entry
  tail call void @_ZdlPv(ptr noundef nonnull %this) #29
  ret void
}